; Function Attrs: mustprogress nounwind uwtable
define dso_local void @_ZN4llvm8codeview15TypeDumpVisitor16visitKnownRecordERNS0_8CVRecordINS0_12TypeLeafKindEEERNS0_18MemberFuncIdRecordE(ptr dead_on_unwind noalias writable writeonly sret(%"class.llvm::Error") align 8 captures(none) initializes((0, 8)) %0, ptr noundef nonnull readonly align 8 captures(none) dereferenceable(40) %1, ptr nonnull readnone align 8 captures(none) %2, ptr noundef nonnull readonly align 8 captures(none) dereferenceable(32) %3) unnamed_addr #0 align 2 {
_ZN4llvm12ErrorSuccessD2Ev.exit:
  %4 = getelementptr inbounds nuw i8, ptr %3, i64 2
  %.sroa.0.0.copyload.i = load i32, ptr %4, align 2
  %5 = getelementptr inbounds nuw i8, ptr %1, i64 8
  %6 = load ptr, ptr %5, align 8
  %7 = getelementptr inbounds nuw i8, ptr %1, i64 24
  %8 = load ptr, ptr %7, align 8
  tail call void @_ZN4llvm8codeview14printTypeIndexERNS_13ScopedPrinterENS_9StringRefENS0_9TypeIndexERNS0_14TypeCollectionE(ptr noundef nonnull align 8 dereferenceable(44) %6, ptr nonnull @.str.32, i64 9, i32 %.sroa.0.0.copyload.i, ptr noundef nonnull align 8 dereferenceable(8) %8) #14
  %9 = getelementptr inbounds nuw i8, ptr %3, i64 6
  %.sroa.0.0.copyload.i6 = load i32, ptr %9, align 2
  %10 = load ptr, ptr %5, align 8
  %11 = load ptr, ptr %7, align 8
  tail call void @_ZN4llvm8codeview14printTypeIndexERNS_13ScopedPrinterENS_9StringRefENS0_9TypeIndexERNS0_14TypeCollectionE(ptr noundef nonnull align 8 dereferenceable(44) %10, ptr nonnull @.str.33, i64 12, i32 %.sroa.0.0.copyload.i6, ptr noundef nonnull align 8 dereferenceable(8) %11) #14
  %12 = load ptr, ptr %5, align 8
  %13 = getelementptr inbounds nuw i8, ptr %3, i64 16
  %.sroa.0.0.copyload.i7 = load ptr, ptr %13, align 8
  %.sroa.2.0..sroa_idx.i = getelementptr inbounds nuw i8, ptr %3, i64 24
  %.sroa.2.0.copyload.i = load i64, ptr %.sroa.2.0..sroa_idx.i, align 8
  %14 = load ptr, ptr %12, align 8
  %15 = getelementptr inbounds nuw i8, ptr %14, i64 232
  %16 = load ptr, ptr %15, align 8
  tail call void %16(ptr noundef nonnull align 8 dereferenceable(44) %12, ptr nonnull @.str.20, i64 4, ptr %.sroa.0.0.copyload.i7, i64 %.sroa.2.0.copyload.i) #14
  store ptr null, ptr %0, align 8
  ret void
}